; Function Attrs: nounwind uwtable
define dso_local i32 @bf_add_si(ptr noundef %0, ptr noundef %1, i64 noundef %2, i64 noundef %3, i32 noundef %4) local_unnamed_addr #2 {
  %6 = alloca %struct.bf_t, align 8
  call void @llvm.lifetime.start.p0(i64 40, ptr nonnull %6) #21
  %7 = load ptr, ptr %0, align 8, !tbaa !28
  store ptr %7, ptr %6, align 8, !tbaa !28
  %8 = getelementptr inbounds nuw i8, ptr %6, i64 8
  %9 = getelementptr inbounds nuw i8, ptr %6, i64 16
  %10 = getelementptr inbounds nuw i8, ptr %6, i64 24
  call void @llvm.memset.p0.i64(ptr noundef nonnull align 8 dereferenceable(16) %10, i8 0, i64 16, i1 false)
  %11 = icmp slt i64 %2, 0
  br i1 %11, label %12, label %21

12:                                               ; preds = %5
  %.val.i16.i.i = load ptr, ptr %7, align 8, !tbaa !19
  %13 = getelementptr i8, ptr %7, i64 8
  %.val13.i17.i.i = load ptr, ptr %13, align 8, !tbaa !7
  %14 = tail call ptr %.val13.i17.i.i(ptr noundef %.val.i16.i.i, ptr noundef null, i64 noundef 8) #21
  %15 = icmp eq ptr %14, null
  br i1 %15, label %bf_set_ui.exit.i, label %bf_resize.exit18.thread21.i.i

bf_resize.exit18.thread21.i.i:                    ; preds = %12
  %16 = sub i64 0, %2
  %17 = getelementptr inbounds nuw i8, ptr %6, i64 32
  store ptr %14, ptr %17, align 8, !tbaa !29
  store i64 1, ptr %10, align 8, !tbaa !32
  %18 = tail call range(i64 0, 65) i64 @llvm.ctlz.i64(i64 range(i64 1, 0) %16, i1 true)
  %19 = shl i64 %16, %18
  store i64 %19, ptr %14, align 8, !tbaa !33
  %20 = sub nuw nsw i64 64, %18
  br label %bf_set_ui.exit.i

bf_set_ui.exit.i:                                 ; preds = %12, %bf_resize.exit18.thread21.i.i
  %.sink.i = phi i64 [ %20, %bf_resize.exit18.thread21.i.i ], [ 9223372036854775807, %12 ]
  %.013.i.i = phi i32 [ 0, %bf_resize.exit18.thread21.i.i ], [ 32, %12 ]
  store i64 %.sink.i, ptr %9, align 8, !tbaa !31
  store i32 1, ptr %8, align 8, !tbaa !30
  br label %bf_set_si.exit

21:                                               ; preds = %5
  store i32 0, ptr %8, align 8, !tbaa !30
  %22 = icmp eq i64 %2, 0
  br i1 %22, label %23, label %24

23:                                               ; preds = %21
  store i64 -9223372036854775808, ptr %9, align 8, !tbaa !31
  br label %bf_set_si.exit

24:                                               ; preds = %21
  %.val.i16.i8.i = load ptr, ptr %7, align 8, !tbaa !19
  %25 = getelementptr i8, ptr %7, i64 8
  %.val13.i17.i9.i = load ptr, ptr %25, align 8, !tbaa !7
  %26 = tail call ptr %.val13.i17.i9.i(ptr noundef %.val.i16.i8.i, ptr noundef null, i64 noundef 8) #21
  %27 = icmp eq ptr %26, null
  br i1 %27, label %bf_set_nan.exit.i16.i, label %bf_resize.exit18.thread21.i10.i

bf_resize.exit18.thread21.i10.i:                  ; preds = %24
  %28 = getelementptr inbounds nuw i8, ptr %6, i64 32
  store ptr %26, ptr %28, align 8, !tbaa !29
  store i64 1, ptr %10, align 8, !tbaa !32
  %29 = tail call range(i64 0, 65) i64 @llvm.ctlz.i64(i64 range(i64 1, 0) %2, i1 true)
  %30 = shl i64 %2, %29
  store i64 %30, ptr %26, align 8, !tbaa !33
  %31 = sub nuw nsw i64 64, %29
  store i64 %31, ptr %9, align 8, !tbaa !31
  br label %bf_set_si.exit

bf_set_nan.exit.i16.i:                            ; preds = %24
  store i64 9223372036854775807, ptr %9, align 8, !tbaa !31
  store i32 0, ptr %8, align 8, !tbaa !30
  br label %bf_set_si.exit

bf_set_si.exit:                                   ; preds = %23, %bf_set_ui.exit.i, %bf_resize.exit18.thread21.i10.i, %bf_set_nan.exit.i16.i
  %.0.i = phi i32 [ %.013.i.i, %bf_set_ui.exit.i ], [ 32, %bf_set_nan.exit.i16.i ], [ 0, %23 ], [ 0, %bf_resize.exit18.thread21.i10.i ]
  %32 = call fastcc i32 @bf_op2(ptr noundef nonnull %0, ptr noundef %1, ptr noundef nonnull %6, i64 noundef %3, i32 noundef %4, ptr noundef nonnull @__bf_add)
  %33 = load ptr, ptr %6, align 8, !tbaa !28
  %.not.i = icmp eq ptr %33, null
  br i1 %.not.i, label %bf_delete.exit, label %34

34:                                               ; preds = %bf_set_si.exit
  %35 = getelementptr inbounds nuw i8, ptr %6, i64 32
  %36 = load ptr, ptr %35, align 8, !tbaa !29
  %.not6.i = icmp eq ptr %36, null
  br i1 %.not6.i, label %bf_delete.exit, label %37

37:                                               ; preds = %34
  %.val.i = load ptr, ptr %33, align 8, !tbaa !19
  %38 = getelementptr i8, ptr %33, i64 8
  %.val7.i = load ptr, ptr %38, align 8, !tbaa !7
  %39 = call ptr %.val7.i(ptr noundef %.val.i, ptr noundef nonnull %36, i64 noundef 0) #21
  br label %bf_delete.exit

bf_delete.exit:                                   ; preds = %bf_set_si.exit, %34, %37
  %40 = or i32 %32, %.0.i
  call void @llvm.lifetime.end.p0(i64 40, ptr nonnull %6) #21
  ret i32 %40
}